target datalayout = "e-m:e-p270:32:32-p271:32:32-p272:64:64-i64:64-i128:128-f80:128-n8:16:32:64-S128"
target triple = "x86_64-pc-linux-gnu"

@.str.62 = private unnamed_addr constant [10 x i8] c"testapp.c\00", align 1
@crc32c = external global ptr, align 8
@.str.226 = private unnamed_addr constant [21 x i8] c"crc_hw == 0x9c44184b\00", align 1
@__PRETTY_FUNCTION__.test_crc32c = private unnamed_addr constant [35 x i8] c"enum test_return test_crc32c(void)\00", align 1
@.str.227 = private unnamed_addr constant [21 x i8] c"crc_sw == 0x9c44184b\00", align 1
@.str.228 = private unnamed_addr constant [21 x i8] c"crc_hw == 0xae10ee5a\00", align 1
@.str.229 = private unnamed_addr constant [21 x i8] c"crc_sw == 0xae10ee5a\00", align 1
@.str.230 = private unnamed_addr constant [21 x i8] c"crc_hw == 0xed37b906\00", align 1
@.str.231 = private unnamed_addr constant [21 x i8] c"crc_sw == 0xed37b906\00", align 1

; Function Attrs: nounwind uwtable
define internal i32 @test_crc32c() #0 {
  %1 = alloca i32, align 4
  %2 = alloca i32, align 4
  %3 = alloca [256 x i8], align 16
  %4 = alloca i32, align 4
  call void @llvm.lifetime.start.p0(i64 4, ptr %1) #12
  call void @llvm.lifetime.start.p0(i64 4, ptr %2) #12
  call void @llvm.lifetime.start.p0(i64 256, ptr %3) #12
  call void @llvm.lifetime.start.p0(i64 4, ptr %4) #12
  store i32 0, ptr %4, align 4, !tbaa !10
  br label %5

5:                                                ; preds = %15, %0
  %6 = load i32, ptr %4, align 4, !tbaa !10
  %7 = icmp slt i32 %6, 256
  br i1 %7, label %9, label %8

8:                                                ; preds = %5
  call void @llvm.lifetime.end.p0(i64 4, ptr %4) #12
  br label %18

9:                                                ; preds = %5
  %10 = load i32, ptr %4, align 4, !tbaa !10
  %11 = trunc i32 %10 to i8
  %12 = load i32, ptr %4, align 4, !tbaa !10
  %13 = sext i32 %12 to i64
  %14 = getelementptr inbounds [256 x i8], ptr %3, i64 0, i64 %13
  store i8 %11, ptr %14, align 1, !tbaa !14
  br label %15

15:                                               ; preds = %9
  %16 = load i32, ptr %4, align 4, !tbaa !10
  %17 = add nsw i32 %16, 1
  store i32 %17, ptr %4, align 4, !tbaa !10
  br label %5, !llvm.loop !51

18:                                               ; preds = %8
  %19 = load ptr, ptr @crc32c, align 8, !tbaa !4
  %20 = getelementptr inbounds [256 x i8], ptr %3, i64 0, i64 0
  %21 = call i32 %19(i32 noundef 0, ptr noundef %20, i64 noundef 256)
  store i32 %21, ptr %1, align 4, !tbaa !10
  %22 = getelementptr inbounds [256 x i8], ptr %3, i64 0, i64 0
  %23 = call i32 @crc32c_sw(i32 noundef 0, ptr noundef %22, i64 noundef 256)
  store i32 %23, ptr %2, align 4, !tbaa !10
  %24 = load i32, ptr %1, align 4, !tbaa !10
  %25 = icmp eq i32 %24, -1673258933
  br i1 %25, label %26, label %27

26:                                               ; preds = %18
  br label %28

27:                                               ; preds = %18
  call void @__assert_fail(ptr noundef @.str.226, ptr noundef @.str.62, i32 noundef 863, ptr noundef @__PRETTY_FUNCTION__.test_crc32c) #13
  unreachable

28:                                               ; preds = %26
  %29 = load i32, ptr %2, align 4, !tbaa !10
  %30 = icmp eq i32 %29, -1673258933
  br i1 %30, label %31, label %32

31:                                               ; preds = %28
  br label %33

32:                                               ; preds = %28
  call void @__assert_fail(ptr noundef @.str.227, ptr noundef @.str.62, i32 noundef 864, ptr noundef @__PRETTY_FUNCTION__.test_crc32c) #13
  unreachable

33:                                               ; preds = %31
  %34 = load ptr, ptr @crc32c, align 8, !tbaa !4
  %35 = load i32, ptr %1, align 4, !tbaa !10
  %36 = getelementptr inbounds [256 x i8], ptr %3, i64 0, i64 0
  %37 = call i32 %34(i32 noundef %35, ptr noundef %36, i64 noundef 256)
  store i32 %37, ptr %1, align 4, !tbaa !10
  %38 = load i32, ptr %2, align 4, !tbaa !10
  %39 = getelementptr inbounds [256 x i8], ptr %3, i64 0, i64 0
  %40 = call i32 @crc32c_sw(i32 noundef %38, ptr noundef %39, i64 noundef 256)
  store i32 %40, ptr %2, align 4, !tbaa !10
  %41 = load i32, ptr %1, align 4, !tbaa !10
  %42 = icmp eq i32 %41, -1374622118
  br i1 %42, label %43, label %44

43:                                               ; preds = %33
  br label %45

44:                                               ; preds = %33
  call void @__assert_fail(ptr noundef @.str.228, ptr noundef @.str.62, i32 noundef 869, ptr noundef @__PRETTY_FUNCTION__.test_crc32c) #13
  unreachable

45:                                               ; preds = %43
  %46 = load i32, ptr %2, align 4, !tbaa !10
  %47 = icmp eq i32 %46, -1374622118
  br i1 %47, label %48, label %49

48:                                               ; preds = %45
  br label %50

49:                                               ; preds = %45
  call void @__assert_fail(ptr noundef @.str.229, ptr noundef @.str.62, i32 noundef 870, ptr noundef @__PRETTY_FUNCTION__.test_crc32c) #13
  unreachable

50:                                               ; preds = %48
  %51 = load ptr, ptr @crc32c, align 8, !tbaa !4
  %52 = load i32, ptr %1, align 4, !tbaa !10
  %53 = getelementptr inbounds [256 x i8], ptr %3, i64 0, i64 0
  %54 = getelementptr inbounds i8, ptr %53, i64 1
  %55 = call i32 %51(i32 noundef %52, ptr noundef %54, i64 noundef 254)
  store i32 %55, ptr %1, align 4, !tbaa !10
  %56 = load i32, ptr %2, align 4, !tbaa !10
  %57 = getelementptr inbounds [256 x i8], ptr %3, i64 0, i64 0
  %58 = getelementptr inbounds i8, ptr %57, i64 1
  %59 = call i32 @crc32c_sw(i32 noundef %56, ptr noundef %58, i64 noundef 254)
  store i32 %59, ptr %2, align 4, !tbaa !10
  %60 = load i32, ptr %1, align 4, !tbaa !10
  %61 = icmp eq i32 %60, -315115258
  br i1 %61, label %62, label %63

62:                                               ; preds = %50
  br label %64

63:                                               ; preds = %50
  call void @__assert_fail(ptr noundef @.str.230, ptr noundef @.str.62, i32 noundef 875, ptr noundef @__PRETTY_FUNCTION__.test_crc32c) #13
  unreachable

64:                                               ; preds = %62
  %65 = load i32, ptr %2, align 4, !tbaa !10
  %66 = icmp eq i32 %65, -315115258
  br i1 %66, label %67, label %68

67:                                               ; preds = %64
  br label %69

68:                                               ; preds = %64
  call void @__assert_fail(ptr noundef @.str.231, ptr noundef @.str.62, i32 noundef 876, ptr noundef @__PRETTY_FUNCTION__.test_crc32c) #13
  unreachable

69:                                               ; preds = %67
  call void @llvm.lifetime.end.p0(i64 256, ptr %3) #12
  call void @llvm.lifetime.end.p0(i64 4, ptr %2) #12
  call void @llvm.lifetime.end.p0(i64 4, ptr %1) #12
  ret i32 1
}