; Function Attrs: nounwind uwtable
define internal noundef i32 @test_crc32c() #0 {
  %1 = alloca [256 x i8], align 16
  call void @llvm.lifetime.start.p0(i64 256, ptr nonnull %1) #21
  br label %7

2:                                                ; preds = %7
  %3 = load ptr, ptr @crc32c, align 8, !tbaa !27
  %4 = call i32 %3(i32 noundef 0, ptr noundef nonnull %1, i64 noundef 256) #21
  %5 = call i32 @crc32c_sw(i32 noundef 0, ptr noundef nonnull %1, i64 noundef 256) #21
  %6 = icmp eq i32 %4, -1673258933
  br i1 %6, label %11, label %10

7:                                                ; preds = %0, %7
  %indvars.iv = phi i64 [ 0, %0 ], [ %indvars.iv.next, %7 ]
  %8 = trunc i64 %indvars.iv to i8
  %9 = getelementptr inbounds nuw [256 x i8], ptr %1, i64 0, i64 %indvars.iv
  store i8 %8, ptr %9, align 1, !tbaa !6
  %indvars.iv.next = add nuw nsw i64 %indvars.iv, 1
  %exitcond.not = icmp eq i64 %indvars.iv.next, 256
  br i1 %exitcond.not, label %2, label %7, !llvm.loop !43

10:                                               ; preds = %2
  call void @__assert_fail(ptr noundef nonnull @.str.226, ptr noundef nonnull @.str.62, i32 noundef 863, ptr noundef nonnull @__PRETTY_FUNCTION__.test_crc32c) #22
  unreachable

11:                                               ; preds = %2
  %12 = icmp eq i32 %5, -1673258933
  br i1 %12, label %14, label %13

13:                                               ; preds = %11
  call void @__assert_fail(ptr noundef nonnull @.str.227, ptr noundef nonnull @.str.62, i32 noundef 864, ptr noundef nonnull @__PRETTY_FUNCTION__.test_crc32c) #22
  unreachable

14:                                               ; preds = %11
  %15 = load ptr, ptr @crc32c, align 8, !tbaa !27
  %16 = call i32 %15(i32 noundef -1673258933, ptr noundef nonnull %1, i64 noundef 256) #21
  %17 = call i32 @crc32c_sw(i32 noundef -1673258933, ptr noundef nonnull %1, i64 noundef 256) #21
  %18 = icmp eq i32 %16, -1374622118
  br i1 %18, label %20, label %19

19:                                               ; preds = %14
  call void @__assert_fail(ptr noundef nonnull @.str.228, ptr noundef nonnull @.str.62, i32 noundef 869, ptr noundef nonnull @__PRETTY_FUNCTION__.test_crc32c) #22
  unreachable

20:                                               ; preds = %14
  %21 = icmp eq i32 %17, -1374622118
  br i1 %21, label %23, label %22

22:                                               ; preds = %20
  call void @__assert_fail(ptr noundef nonnull @.str.229, ptr noundef nonnull @.str.62, i32 noundef 870, ptr noundef nonnull @__PRETTY_FUNCTION__.test_crc32c) #22
  unreachable

23:                                               ; preds = %20
  %24 = load ptr, ptr @crc32c, align 8, !tbaa !27
  %25 = getelementptr inbounds nuw i8, ptr %1, i64 1
  %26 = call i32 %24(i32 noundef -1374622118, ptr noundef nonnull %25, i64 noundef 254) #21
  %27 = call i32 @crc32c_sw(i32 noundef -1374622118, ptr noundef nonnull %25, i64 noundef 254) #21
  %28 = icmp eq i32 %26, -315115258
  br i1 %28, label %30, label %29

29:                                               ; preds = %23
  call void @__assert_fail(ptr noundef nonnull @.str.230, ptr noundef nonnull @.str.62, i32 noundef 875, ptr noundef nonnull @__PRETTY_FUNCTION__.test_crc32c) #22
  unreachable

30:                                               ; preds = %23
  %31 = icmp eq i32 %27, -315115258
  br i1 %31, label %33, label %32

32:                                               ; preds = %30
  call void @__assert_fail(ptr noundef nonnull @.str.231, ptr noundef nonnull @.str.62, i32 noundef 876, ptr noundef nonnull @__PRETTY_FUNCTION__.test_crc32c) #22
  unreachable

33:                                               ; preds = %30
  call void @llvm.lifetime.end.p0(i64 256, ptr nonnull %1) #21
  ret i32 1
}